; Function Attrs: nounwind uwtable
define internal fastcc i64 @mincross_clust(ptr noundef %0, ptr noundef nonnull captures(none) %1) unnamed_addr #0 {
  tail call void @expand_cluster(ptr noundef %0) #23
  tail call fastcc void @ordered_edges(ptr noundef %0)
  tail call fastcc void @flat_breakcycles(ptr noundef %0)
  tail call fastcc void @flat_reorder(ptr noundef %0)
  %3 = tail call fastcc i64 @mincross(ptr noundef %0, i32 noundef 2, ptr noundef %1)
  %4 = getelementptr inbounds nuw i8, ptr %0, i64 16
  %5 = load ptr, ptr %4, align 8, !tbaa !3
  %6 = getelementptr inbounds nuw i8, ptr %5, i64 236
  %7 = load i32, ptr %6, align 4, !tbaa !72
  %.not15 = icmp slt i32 %7, 1
  br i1 %.not15, label %._crit_edge, label %.lr.ph

.lr.ph:                                           ; preds = %2, %.lr.ph
  %indvars.iv = phi i64 [ %indvars.iv.next, %.lr.ph ], [ 1, %2 ]
  %8 = phi ptr [ %15, %.lr.ph ], [ %5, %2 ]
  %.017 = phi i64 [ %14, %.lr.ph ], [ %3, %2 ]
  %9 = getelementptr inbounds nuw i8, ptr %8, i64 240
  %10 = load ptr, ptr %9, align 8, !tbaa !73
  %11 = getelementptr inbounds nuw ptr, ptr %10, i64 %indvars.iv
  %12 = load ptr, ptr %11, align 8, !tbaa !74
  %13 = tail call fastcc i64 @mincross_clust(ptr noundef %12, ptr noundef %1)
  %14 = add nsw i64 %13, %.017
  %indvars.iv.next = add nuw nsw i64 %indvars.iv, 1
  %15 = load ptr, ptr %4, align 8, !tbaa !3
  %16 = getelementptr inbounds nuw i8, ptr %15, i64 236
  %17 = load i32, ptr %16, align 4, !tbaa !72
  %18 = sext i32 %17 to i64
  %.not.not = icmp slt i64 %indvars.iv, %18
  br i1 %.not.not, label %.lr.ph, label %._crit_edge, !llvm.loop !147

._crit_edge:                                      ; preds = %.lr.ph, %2
  %.0.lcssa = phi i64 [ %3, %2 ], [ %14, %.lr.ph ]
  %.lcssa = phi ptr [ %5, %2 ], [ %15, %.lr.ph ]
  %19 = getelementptr inbounds nuw i8, ptr %.lcssa, i64 384
  %20 = load ptr, ptr %19, align 8, !tbaa !148
  %.not.i = icmp eq ptr %20, null
  br i1 %.not.i, label %save_vlist.exit, label %21

21:                                               ; preds = %._crit_edge
  %22 = getelementptr inbounds nuw i8, ptr %.lcssa, i64 336
  %23 = load i32, ptr %22, align 8, !tbaa !12
  %24 = getelementptr inbounds nuw i8, ptr %.lcssa, i64 340
  %25 = load i32, ptr %24, align 4, !tbaa !32
  %.not89.i = icmp sgt i32 %23, %25
  br i1 %.not89.i, label %save_vlist.exit, label %.lr.ph.i

.lr.ph.i:                                         ; preds = %21
  %26 = getelementptr inbounds nuw i8, ptr %.lcssa, i64 264
  %27 = load ptr, ptr %26, align 8, !tbaa !33
  %28 = sext i32 %23 to i64
  %29 = add i32 %25, 1
  br label %30

30:                                               ; preds = %30, %.lr.ph.i
  %indvars.iv.i = phi i64 [ %28, %.lr.ph.i ], [ %indvars.iv.next.i, %30 ]
  %31 = getelementptr inbounds %struct.rank_t, ptr %27, i64 %indvars.iv.i, i32 1
  %32 = load ptr, ptr %31, align 8, !tbaa !37
  %33 = load ptr, ptr %32, align 8, !tbaa !38
  %34 = getelementptr inbounds ptr, ptr %20, i64 %indvars.iv.i
  store ptr %33, ptr %34, align 8, !tbaa !38
  %indvars.iv.next.i = add nsw i64 %indvars.iv.i, 1
  %lftr.wideiv.i = trunc i64 %indvars.iv.next.i to i32
  %exitcond.not.i = icmp eq i32 %29, %lftr.wideiv.i
  br i1 %exitcond.not.i, label %save_vlist.exit, label %30, !llvm.loop !149

save_vlist.exit:                                  ; preds = %30, %._crit_edge, %21
  ret i64 %.0.lcssa
}